target datalayout = "e-m:e-p270:32:32-p271:32:32-p272:64:64-i64:64-i128:128-f80:128-n8:16:32:64-S128"
target triple = "x86_64-pc-linux-gnu"

%"class.llvm::cl::opt" = type { %"class.llvm::cl::Option", %"class.llvm::cl::opt_storage", %"class.llvm::cl::parser", %"class.std::function" }
%"class.llvm::cl::Option" = type { ptr, i16, i16, i16, i16, %"class.llvm::StringRef", %"class.llvm::StringRef", %"class.llvm::StringRef", %"class.llvm::SmallVector", %"class.llvm::SmallPtrSet" }
%"class.llvm::StringRef" = type { ptr, i64 }
%"class.llvm::SmallVector" = type { %"class.llvm::SmallVectorImpl", %"struct.llvm::SmallVectorStorage" }
%"class.llvm::SmallVectorImpl" = type { %"class.llvm::SmallVectorTemplateBase" }
%"class.llvm::SmallVectorTemplateBase" = type { %"class.llvm::SmallVectorTemplateCommon" }
%"class.llvm::SmallVectorTemplateCommon" = type { %"class.llvm::SmallVectorBase" }
%"class.llvm::SmallVectorBase" = type { ptr, i32, i32 }
%"struct.llvm::SmallVectorStorage" = type { [8 x i8] }
%"class.llvm::SmallPtrSet" = type { %"class.llvm::SmallPtrSetImpl.base", [1 x ptr] }
%"class.llvm::SmallPtrSetImpl.base" = type { %"class.llvm::SmallPtrSetImplBase.base" }
%"class.llvm::SmallPtrSetImplBase.base" = type <{ ptr, ptr, i32, i32, i32 }>
%"class.llvm::cl::opt_storage" = type { i8, [7 x i8], %"struct.llvm::cl::OptionValue" }
%"struct.llvm::cl::OptionValue" = type { %"struct.llvm::cl::OptionValueBase.base", [6 x i8] }
%"struct.llvm::cl::OptionValueBase.base" = type { %"class.llvm::cl::OptionValueCopy.base" }
%"class.llvm::cl::OptionValueCopy.base" = type <{ %"struct.llvm::cl::GenericOptionValue", i8, i8 }>
%"struct.llvm::cl::GenericOptionValue" = type { ptr }
%"class.llvm::cl::parser" = type { %"class.llvm::cl::basic_parser" }
%"class.llvm::cl::basic_parser" = type { %"class.llvm::cl::basic_parser_impl" }
%"class.llvm::cl::basic_parser_impl" = type { ptr }
%"class.std::function" = type { %"class.std::_Function_base", ptr }
%"class.std::_Function_base" = type { %"union.std::_Any_data", ptr }
%"union.std::_Any_data" = type { %"union.std::_Nocopy_types" }
%"union.std::_Nocopy_types" = type { { i64, i64 } }
%"class.llvm::TargetSchedModel" = type { %"struct.llvm::MCSchedModel", %"class.llvm::InstrItineraryData", ptr, ptr, %"class.llvm::SmallVector.0", i32, i32 }
%"struct.llvm::MCSchedModel" = type { i32, i32, i32, i32, i32, i32, i8, i8, i8, i32, ptr, ptr, i32, i32, ptr, ptr }
%"class.llvm::InstrItineraryData" = type { %"struct.llvm::MCSchedModel", ptr, ptr, ptr, ptr }
%"class.llvm::SmallVector.0" = type { %"class.llvm::SmallVectorImpl.1", %"struct.llvm::SmallVectorStorage.4" }
%"class.llvm::SmallVectorImpl.1" = type { %"class.llvm::SmallVectorTemplateBase.2" }
%"class.llvm::SmallVectorTemplateBase.2" = type { %"class.llvm::SmallVectorTemplateCommon.3" }
%"class.llvm::SmallVectorTemplateCommon.3" = type { %"class.llvm::SmallVectorBase" }
%"struct.llvm::SmallVectorStorage.4" = type { [64 x i8] }
%"class.llvm::MCInstrDesc" = type { i16, i16, i8, i8, i16, i8, i8, i16, i16, i64, i64 }
%"struct.llvm::MCSchedClassDesc" = type { i16, i16, i16, i16, i16, i16, i16 }
%"class.llvm::MCInstrInfo" = type <{ ptr, ptr, ptr, ptr, ptr, i32, [4 x i8] }>

@_ZL16EnableSchedModel = internal global %"class.llvm::cl::opt" zeroinitializer, align 8
@_ZL16EnableSchedItins = internal global %"class.llvm::cl::opt" zeroinitializer, align 8

; Function Attrs: mustprogress nounwind uwtable
define linkonce_odr hidden noundef zeroext i1 @_ZNK4llvm2cl11opt_storageIbLb0ELb0EE8getValueEv(ptr noundef nonnull align 8 dereferenceable(24) %0) #1 comdat align 2 {
  %2 = alloca ptr, align 8
  store ptr %0, ptr %2, align 8
  %3 = load ptr, ptr %2, align 8
  %4 = getelementptr inbounds nuw %"class.llvm::cl::opt_storage", ptr %3, i32 0, i32 0
  %5 = load i8, ptr %4, align 8
  %6 = trunc i8 %5 to i1
  ret i1 %6
}

; Function Attrs: mustprogress nounwind uwtable
define linkonce_odr hidden noundef zeroext i1 @_ZNK4llvm12MCSchedModel18hasInstrSchedModelEv(ptr noundef nonnull align 8 dereferenceable(72) %0) #1 comdat align 2 {
  %2 = alloca ptr, align 8
  store ptr %0, ptr %2, align 8
  %3 = load ptr, ptr %2, align 8
  %4 = getelementptr inbounds nuw %"struct.llvm::MCSchedModel", ptr %3, i32 0, i32 11
  %5 = load ptr, ptr %4, align 8
  %6 = icmp ne ptr %5, null
  ret i1 %6
}

; Function Attrs: mustprogress nounwind uwtable
define linkonce_odr hidden noundef zeroext i1 @_ZNK4llvm18InstrItineraryData7isEmptyEv(ptr noundef nonnull align 8 dereferenceable(104) %0) #1 comdat align 2 {
  %2 = alloca ptr, align 8
  store ptr %0, ptr %2, align 8
  %3 = load ptr, ptr %2, align 8
  %4 = getelementptr inbounds nuw %"class.llvm::InstrItineraryData", ptr %3, i32 0, i32 4
  %5 = load ptr, ptr %4, align 8
  %6 = icmp eq ptr %5, null
  ret i1 %6
}

; Function Attrs: mustprogress nounwind uwtable
define linkonce_odr hidden noundef zeroext i1 @_ZNK4llvm2cl11opt_storageIbLb0ELb0EEcvbEv(ptr noundef nonnull align 8 dereferenceable(24) %0) #1 comdat align 2 {
  %2 = alloca ptr, align 8
  store ptr %0, ptr %2, align 8
  %3 = load ptr, ptr %2, align 8
  %4 = call noundef zeroext i1 @_ZNK4llvm2cl11opt_storageIbLb0ELb0EE8getValueEv(ptr noundef nonnull align 8 dereferenceable(24) %3)
  ret i1 %4
}

; Function Attrs: mustprogress nounwind uwtable
define linkonce_odr hidden noundef zeroext i1 @_ZNK4llvm16MCSchedClassDesc9isVariantEv(ptr noundef nonnull align 2 dereferenceable(14) %0) #1 comdat align 2 {
  %2 = alloca ptr, align 8
  store ptr %0, ptr %2, align 8
  %3 = load ptr, ptr %2, align 8
  %4 = load i16, ptr %3, align 2
  %5 = and i16 %4, 8191
  %6 = zext i16 %5 to i32
  %7 = icmp eq i32 %6, 8190
  ret i1 %7
}

; Function Attrs: mustprogress nounwind uwtable
define linkonce_odr hidden noundef zeroext i1 @_ZNK4llvm16MCSchedClassDesc7isValidEv(ptr noundef nonnull align 2 dereferenceable(14) %0) #1 comdat align 2 {
  %2 = alloca ptr, align 8
  store ptr %0, ptr %2, align 8
  %3 = load ptr, ptr %2, align 8
  %4 = load i16, ptr %3, align 2
  %5 = and i16 %4, 8191
  %6 = zext i16 %5 to i32
  %7 = icmp ne i32 %6, 8191
  ret i1 %7
}

; Function Attrs: mustprogress nounwind uwtable
define linkonce_odr hidden noundef ptr @_ZNK4llvm12MCSchedModel17getSchedClassDescEj(ptr noundef nonnull align 8 dereferenceable(72) %0, i32 noundef %1) #1 comdat align 2 {
  %3 = alloca ptr, align 8
  %4 = alloca i32, align 4
  store ptr %0, ptr %3, align 8
  store i32 %1, ptr %4, align 4
  %5 = load ptr, ptr %3, align 8
  %6 = getelementptr inbounds nuw %"struct.llvm::MCSchedModel", ptr %5, i32 0, i32 11
  %7 = load ptr, ptr %6, align 8
  %8 = load i32, ptr %4, align 4
  %9 = zext i32 %8 to i64
  %10 = getelementptr inbounds %"struct.llvm::MCSchedClassDesc", ptr %7, i64 %9
  ret ptr %10
}

; Function Attrs: mustprogress nounwind uwtable
define dso_local noundef zeroext i1 @_ZNK4llvm16TargetSchedModel18hasInstrSchedModelEv(ptr noundef nonnull align 8 dereferenceable(280) %0) #1 align 2 {
  %2 = alloca ptr, align 8
  store ptr %0, ptr %2, align 8
  %3 = load ptr, ptr %2, align 8
  %4 = call noundef zeroext i1 @_ZNK4llvm2cl11opt_storageIbLb0ELb0EEcvbEv(ptr noundef nonnull align 8 dereferenceable(24) getelementptr inbounds (i8, ptr @_ZL16EnableSchedModel, i64 128))
  br i1 %4, label %5, label %8

5:                                                ; preds = %1
  %6 = getelementptr inbounds nuw %"class.llvm::TargetSchedModel", ptr %3, i32 0, i32 0
  %7 = call noundef zeroext i1 @_ZNK4llvm12MCSchedModel18hasInstrSchedModelEv(ptr noundef nonnull align 8 dereferenceable(72) %6)
  br label %8

8:                                                ; preds = %5, %1
  %9 = phi i1 [ false, %1 ], [ %7, %5 ]
  ret i1 %9
}

; Function Attrs: mustprogress nounwind uwtable
define linkonce_odr hidden noundef ptr @_ZNK4llvm16TargetSchedModel19getInstrItinerariesEv(ptr noundef nonnull align 8 dereferenceable(280) %0) #1 comdat align 2 {
  %2 = alloca ptr, align 8
  %3 = alloca ptr, align 8
  store ptr %0, ptr %3, align 8
  %4 = load ptr, ptr %3, align 8
  %5 = call noundef zeroext i1 @_ZNK4llvm16TargetSchedModel19hasInstrItinerariesEv(ptr noundef nonnull align 8 dereferenceable(280) %4)
  br i1 %5, label %6, label %8

6:                                                ; preds = %1
  %7 = getelementptr inbounds nuw %"class.llvm::TargetSchedModel", ptr %4, i32 0, i32 1
  store ptr %7, ptr %2, align 8
  br label %9

8:                                                ; preds = %1
  store ptr null, ptr %2, align 8
  br label %9

9:                                                ; preds = %8, %6
  %10 = load ptr, ptr %2, align 8
  ret ptr %10
}

; Function Attrs: mustprogress nounwind uwtable
define dso_local noundef zeroext i1 @_ZNK4llvm16TargetSchedModel19hasInstrItinerariesEv(ptr noundef nonnull align 8 dereferenceable(280) %0) #1 align 2 {
  %2 = alloca ptr, align 8
  store ptr %0, ptr %2, align 8
  %3 = load ptr, ptr %2, align 8
  %4 = call noundef zeroext i1 @_ZNK4llvm2cl11opt_storageIbLb0ELb0EEcvbEv(ptr noundef nonnull align 8 dereferenceable(24) getelementptr inbounds (i8, ptr @_ZL16EnableSchedItins, i64 128))
  br i1 %4, label %5, label %9

5:                                                ; preds = %1
  %6 = getelementptr inbounds nuw %"class.llvm::TargetSchedModel", ptr %3, i32 0, i32 1
  %7 = call noundef zeroext i1 @_ZNK4llvm18InstrItineraryData7isEmptyEv(ptr noundef nonnull align 8 dereferenceable(104) %6)
  %8 = xor i1 %7, true
  br label %9

9:                                                ; preds = %5, %1
  %10 = phi i1 [ false, %1 ], [ %8, %5 ]
  ret i1 %10
}

; Function Attrs: mustprogress nounwind uwtable
define linkonce_odr hidden noundef i32 @_ZNK4llvm11MCInstrDesc13getSchedClassEv(ptr noundef nonnull align 8 dereferenceable(32) %0) #1 comdat align 2 {
  %2 = alloca ptr, align 8
  store ptr %0, ptr %2, align 8
  %3 = load ptr, ptr %2, align 8
  %4 = getelementptr inbounds nuw %"class.llvm::MCInstrDesc", ptr %3, i32 0, i32 4
  %5 = load i16, ptr %4, align 2
  %6 = zext i16 %5 to i32
  ret i32 %6
}

; Function Attrs: mustprogress nounwind uwtable
define linkonce_odr hidden noundef nonnull align 8 dereferenceable(32) ptr @_ZNK4llvm11MCInstrInfo3getEj(ptr noundef nonnull align 8 dereferenceable(44) %0, i32 noundef %1) #1 comdat align 2 {
  %3 = alloca ptr, align 8
  %4 = alloca i32, align 4
  store ptr %0, ptr %3, align 8
  store i32 %1, ptr %4, align 4
  %5 = load ptr, ptr %3, align 8
  %6 = getelementptr inbounds nuw %"class.llvm::MCInstrInfo", ptr %5, i32 0, i32 0
  %7 = load ptr, ptr %6, align 8
  %8 = load i32, ptr %4, align 4
  %9 = zext i32 %8 to i64
  %10 = sub i64 0, %9
  %11 = getelementptr inbounds %"class.llvm::MCInstrDesc", ptr %7, i64 %10
  ret ptr %11
}

; Function Attrs: mustprogress nounwind uwtable
define dso_local noundef double @_ZNK4llvm16TargetSchedModel27computeReciprocalThroughputEj(ptr noundef nonnull align 8 dereferenceable(280) %0, i32 noundef %1) #1 align 2 {
  %3 = alloca double, align 8
  %4 = alloca ptr, align 8
  %5 = alloca i32, align 4
  %6 = alloca i32, align 4
  %7 = alloca ptr, align 8
  store ptr %0, ptr %4, align 8
  store i32 %1, ptr %5, align 4
  %8 = load ptr, ptr %4, align 8
  %9 = getelementptr inbounds nuw %"class.llvm::TargetSchedModel", ptr %8, i32 0, i32 3
  %10 = load ptr, ptr %9, align 8
  %11 = getelementptr inbounds i8, ptr %10, i64 8
  %12 = load i32, ptr %5, align 4
  %13 = call noundef nonnull align 8 dereferenceable(32) ptr @_ZNK4llvm11MCInstrInfo3getEj(ptr noundef nonnull align 8 dereferenceable(44) %11, i32 noundef %12)
  %14 = call noundef i32 @_ZNK4llvm11MCInstrDesc13getSchedClassEv(ptr noundef nonnull align 8 dereferenceable(32) %13)
  store i32 %14, ptr %6, align 4
  %15 = call noundef zeroext i1 @_ZNK4llvm16TargetSchedModel19hasInstrItinerariesEv(ptr noundef nonnull align 8 dereferenceable(280) %8)
  br i1 %15, label %16, label %20

16:                                               ; preds = %2
  %17 = load i32, ptr %6, align 4
  %18 = call noundef ptr @_ZNK4llvm16TargetSchedModel19getInstrItinerariesEv(ptr noundef nonnull align 8 dereferenceable(280) %8)
  %19 = call noundef double @_ZN4llvm12MCSchedModel23getReciprocalThroughputEjRKNS_18InstrItineraryDataE(i32 noundef %17, ptr noundef nonnull align 8 dereferenceable(104) %18)
  store double %19, ptr %3, align 8
  br label %38

20:                                               ; preds = %2
  %21 = call noundef zeroext i1 @_ZNK4llvm16TargetSchedModel18hasInstrSchedModelEv(ptr noundef nonnull align 8 dereferenceable(280) %8)
  br i1 %21, label %22, label %37

22:                                               ; preds = %20
  %23 = getelementptr inbounds nuw %"class.llvm::TargetSchedModel", ptr %8, i32 0, i32 0
  %24 = load i32, ptr %6, align 4
  %25 = call noundef ptr @_ZNK4llvm12MCSchedModel17getSchedClassDescEj(ptr noundef nonnull align 8 dereferenceable(72) %23, i32 noundef %24)
  store ptr %25, ptr %7, align 8
  %26 = load ptr, ptr %7, align 8
  %27 = call noundef zeroext i1 @_ZNK4llvm16MCSchedClassDesc7isValidEv(ptr noundef nonnull align 2 dereferenceable(14) %26)
  br i1 %27, label %28, label %36

28:                                               ; preds = %22
  %29 = load ptr, ptr %7, align 8
  %30 = call noundef zeroext i1 @_ZNK4llvm16MCSchedClassDesc9isVariantEv(ptr noundef nonnull align 2 dereferenceable(14) %29)
  br i1 %30, label %36, label %31

31:                                               ; preds = %28
  %32 = getelementptr inbounds nuw %"class.llvm::TargetSchedModel", ptr %8, i32 0, i32 2
  %33 = load ptr, ptr %32, align 8
  %34 = load ptr, ptr %7, align 8
  %35 = call noundef double @_ZN4llvm12MCSchedModel23getReciprocalThroughputERKNS_15MCSubtargetInfoERKNS_16MCSchedClassDescE(ptr noundef nonnull align 8 dereferenceable(288) %33, ptr noundef nonnull align 2 dereferenceable(14) %34)
  store double %35, ptr %3, align 8
  br label %38

36:                                               ; preds = %28, %22
  br label %37

37:                                               ; preds = %36, %20
  store double 0.000000e+00, ptr %3, align 8
  br label %38

38:                                               ; preds = %37, %31, %16
  %39 = load double, ptr %3, align 8
  ret double %39
}