; Function Attrs: mustprogress nounwind uwtable
define dso_local noundef double @_ZNK4llvm16TargetSchedModel27computeReciprocalThroughputEj(ptr noundef nonnull align 8 dereferenceable(280) %0, i32 noundef %1) local_unnamed_addr #0 align 2 {
  %3 = getelementptr inbounds nuw i8, ptr %0, i64 184
  %4 = load ptr, ptr %3, align 8
  %5 = getelementptr inbounds i8, ptr %4, i64 8
  %6 = load ptr, ptr %5, align 8
  %7 = zext i32 %1 to i64
  %8 = sub nsw i64 0, %7
  %9 = getelementptr inbounds %"class.llvm::MCInstrDesc", ptr %6, i64 %8, i32 4
  %10 = load i16, ptr %9, align 2
  %11 = load i8, ptr getelementptr inbounds (i8, ptr @_ZL16EnableSchedItins, i64 128), align 8
  %12 = trunc i8 %11 to i1
  %13 = getelementptr inbounds i8, ptr %0, i64 168
  %14 = load ptr, ptr %13, align 8
  %15 = icmp ne ptr %14, null
  %16 = select i1 %12, i1 %15, i1 false
  br i1 %16, label %17, label %21

17:                                               ; preds = %2
  %18 = zext i16 %10 to i32
  %19 = getelementptr inbounds nuw i8, ptr %0, i64 72
  %20 = tail call noundef double @_ZN4llvm12MCSchedModel23getReciprocalThroughputEjRKNS_18InstrItineraryDataE(i32 noundef %18, ptr noundef nonnull align 8 dereferenceable(104) %19) #11
  br label %37

21:                                               ; preds = %2
  %22 = load i8, ptr getelementptr inbounds (i8, ptr @_ZL16EnableSchedModel, i64 128), align 8
  %23 = trunc i8 %22 to i1
  %24 = getelementptr inbounds nuw i8, ptr %0, i64 40
  %25 = load ptr, ptr %24, align 8
  %26 = icmp ne ptr %25, null
  %27 = select i1 %23, i1 %26, i1 false
  br i1 %27, label %28, label %37

28:                                               ; preds = %21
  %29 = zext i16 %10 to i64
  %30 = getelementptr inbounds %"struct.llvm::MCSchedClassDesc", ptr %25, i64 %29
  %31 = load i16, ptr %30, align 2
  %32 = and i16 %31, 8190
  %switch = icmp eq i16 %32, 8190
  br i1 %switch, label %37, label %33

33:                                               ; preds = %28
  %34 = getelementptr inbounds nuw i8, ptr %0, i64 176
  %35 = load ptr, ptr %34, align 8
  %36 = tail call noundef double @_ZN4llvm12MCSchedModel23getReciprocalThroughputERKNS_15MCSubtargetInfoERKNS_16MCSchedClassDescE(ptr noundef nonnull align 8 dereferenceable(288) %35, ptr noundef nonnull align 2 dereferenceable(14) %30) #11
  br label %37

37:                                               ; preds = %28, %21, %33, %17
  %.0 = phi double [ %20, %17 ], [ %36, %33 ], [ 0.000000e+00, %21 ], [ 0.000000e+00, %28 ]
  ret double %.0
}